target datalayout = "e-m:e-p270:32:32-p271:32:32-p272:64:64-i64:64-i128:128-f80:128-n8:16:32:64-S128"
target triple = "x86_64-pc-linux-gnu"

%struct.rlimit = type { i64, i64 }

@.str.8 = private unnamed_addr constant [17 x i8] c"getrlimit failed\00", align 1

; Function Attrs: nounwind uwtable
define i32 @Java_sun_nio_ch_IOUtil_fdLimit(ptr noundef %0, ptr noundef %1) #0 {
  %3 = alloca i32, align 4
  %4 = alloca ptr, align 8
  %5 = alloca ptr, align 8
  %6 = alloca %struct.rlimit, align 8
  store ptr %0, ptr %4, align 8
  store ptr %1, ptr %5, align 8
  %7 = call i32 @getrlimit64(i32 noundef 7, ptr noundef %6) #4
  %8 = icmp slt i32 %7, 0
  br i1 %8, label %9, label %11

9:                                                ; preds = %2
  %10 = load ptr, ptr %4, align 8
  call void @JNU_ThrowIOExceptionWithLastError(ptr noundef %10, ptr noundef @.str.8)
  store i32 -1, ptr %3, align 4
  br label %24

11:                                               ; preds = %2
  %12 = getelementptr inbounds %struct.rlimit, ptr %6, i32 0, i32 1
  %13 = load i64, ptr %12, align 8
  %14 = icmp eq i64 %13, -1
  br i1 %14, label %19, label %15

15:                                               ; preds = %11
  %16 = getelementptr inbounds %struct.rlimit, ptr %6, i32 0, i32 1
  %17 = load i64, ptr %16, align 8
  %18 = icmp ugt i64 %17, 2147483647
  br i1 %18, label %19, label %20

19:                                               ; preds = %15, %11
  store i32 2147483647, ptr %3, align 4
  br label %24

20:                                               ; preds = %15
  %21 = getelementptr inbounds %struct.rlimit, ptr %6, i32 0, i32 1
  %22 = load i64, ptr %21, align 8
  %23 = trunc i64 %22 to i32
  store i32 %23, ptr %3, align 4
  br label %24

24:                                               ; preds = %20, %19, %9
  %25 = load i32, ptr %3, align 4
  ret i32 %25
}