; Function Attrs: nounwind uwtable
define range(i32 -1, -2147483648) i32 @Java_sun_nio_ch_IOUtil_fdLimit(ptr noundef %0, ptr nocapture noundef readnone %1) local_unnamed_addr #0 {
  %3 = alloca %struct.rlimit, align 8
  %4 = call i32 @getrlimit64(i32 noundef 7, ptr noundef nonnull %3) #7
  %5 = icmp slt i32 %4, 0
  br i1 %5, label %6, label %7

6:                                                ; preds = %2
  call void @JNU_ThrowIOExceptionWithLastError(ptr noundef %0, ptr noundef nonnull @.str.8) #7
  br label %10

7:                                                ; preds = %2
  %8 = getelementptr inbounds i8, ptr %3, i64 8
  %9 = load i64, ptr %8, align 8
  %spec.select4 = call i64 @llvm.umin.i64(i64 %9, i64 2147483647)
  %spec.select = trunc nuw nsw i64 %spec.select4 to i32
  br label %10

10:                                               ; preds = %7, %6
  %.0 = phi i32 [ -1, %6 ], [ %spec.select, %7 ]
  ret i32 %.0
}